C:/Users/Flash/AppData/Local/Temp/zcc00007238F2E53.asm:
     1                          MODULE main_c
     2                          LINE 0, "main.c"
main.c:
                                
     1                          ;--------------------------------------------------------
     2                          ; File Created by SDCC : free open source ISO C Compiler
     3                          ; Version 4.5.0 #15248 (MINGW64)
     4                          ;--------------------------------------------------------
     5                          ; Processed by Z88DK
     6                          ;--------------------------------------------------------
     7                          
     8                          	EXTERN __divschar
     9                          	EXTERN __divschar_callee
    10                          	EXTERN __divsint
    11                          	EXTERN __divsint_callee
    12                          	EXTERN __divslong
    13                          	EXTERN __divslong_callee
    14                          	EXTERN __divslonglong
    15                          	EXTERN __divslonglong_callee
    16                          	EXTERN __divsuchar
    17                          	EXTERN __divsuchar_callee
    18                          	EXTERN __divuchar
    19                          	EXTERN __divuchar_callee
    20                          	EXTERN __divuint
    21                          	EXTERN __divuint_callee
    22                          	EXTERN __divulong
    23                          	EXTERN __divulong_callee
    24                          	EXTERN __divulonglong
    25                          	EXTERN __divulonglong_callee
    26                          	EXTERN __divuschar
    27                          	EXTERN __divuschar_callee
    28                          	EXTERN __modschar
    29                          	EXTERN __modschar_callee
    30                          	EXTERN __modsint
    31                          	EXTERN __modsint_callee
    32                          	EXTERN __modslong
    33                          	EXTERN __modslong_callee
    34                          	EXTERN __modslonglong
    35                          	EXTERN __modslonglong_callee
    36                          	EXTERN __modsuchar
    37                          	EXTERN __modsuchar_callee
    38                          	EXTERN __moduchar
    39                          	EXTERN __moduchar_callee
    40                          	EXTERN __moduint
    41                          	EXTERN __moduint_callee
    42                          	EXTERN __modulong
    43                          	EXTERN __modulong_callee
    44                          	EXTERN __modulonglong
    45                          	EXTERN __modulonglong_callee
    46                          	EXTERN __moduschar
    47                          	EXTERN __moduschar_callee
    48                          	EXTERN __mulint
    49                          	EXTERN __mulint_callee
    50                          	EXTERN __mullong
    51                          	EXTERN __mullong_callee
    52                          	EXTERN __mullonglong
    53                          	EXTERN __mullonglong_callee
    54                          	EXTERN __mulschar
    55                          	EXTERN __mulschar_callee
    56                          	EXTERN __mulsuchar
    57                          	EXTERN __mulsuchar_callee
    58                          	EXTERN __muluchar
    59                          	EXTERN __muluchar_callee
    60                          	EXTERN __muluschar
    61                          	EXTERN __muluschar_callee
    62                          	EXTERN __rlslonglong
    63                          	EXTERN __rlslonglong_callee
    64                          	EXTERN __rlulonglong
    65                          	EXTERN __rlulonglong_callee
    66                          	EXTERN __rrslonglong
    67                          	EXTERN __rrslonglong_callee
    68                          	EXTERN __rrulonglong
    69                          	EXTERN __rrulonglong_callee
    70                          	EXTERN ___mulsint2slong
    71                          	EXTERN ___mulsint2slong_callee
    72                          	EXTERN ___muluint2ulong
    73                          	EXTERN ___muluint2ulong_callee
    74                          	EXTERN ___sdcc_call_hl
    75                          	EXTERN ___sdcc_call_iy
    76                          	EXTERN ___sdcc_enter_ix
    77                          	EXTERN banked_call
    78                          	EXTERN _banked_ret
    79                          	EXTERN ___fs2schar
    80                          	EXTERN ___fs2schar_callee
    81                          	EXTERN ___fs2sint
    82                          	EXTERN ___fs2sint_callee
    83                          	EXTERN ___fs2slong
    84                          	EXTERN ___fs2slong_callee
    85                          	EXTERN ___fs2slonglong
    86                          	EXTERN ___fs2slonglong_callee
    87                          	EXTERN ___fs2uchar
    88                          	EXTERN ___fs2uchar_callee
    89                          	EXTERN ___fs2uint
    90                          	EXTERN ___fs2uint_callee
    91                          	EXTERN ___fs2ulong
    92                          	EXTERN ___fs2ulong_callee
    93                          	EXTERN ___fs2ulonglong
    94                          	EXTERN ___fs2ulonglong_callee
    95                          	EXTERN ___fsadd
    96                          	EXTERN ___fsadd_callee
    97                          	EXTERN ___fsdiv
    98                          	EXTERN ___fsdiv_callee
    99                          	EXTERN ___fseq
   100                          	EXTERN ___fseq_callee
   101                          	EXTERN ___fsgt
   102                          	EXTERN ___fsgt_callee
   103                          	EXTERN ___fslt
   104                          	EXTERN ___fslt_callee
   105                          	EXTERN ___fsmul
   106                          	EXTERN ___fsmul_callee
   107                          	EXTERN ___fsneq
   108                          	EXTERN ___fsneq_callee
   109                          	EXTERN ___fssub
   110                          	EXTERN ___fssub_callee
   111                          	EXTERN ___schar2fs
   112                          	EXTERN ___schar2fs_callee
   113                          	EXTERN ___sint2fs
   114                          	EXTERN ___sint2fs_callee
   115                          	EXTERN ___slong2fs
   116                          	EXTERN ___slong2fs_callee
   117                          	EXTERN ___slonglong2fs
   118                          	EXTERN ___slonglong2fs_callee
   119                          	EXTERN ___uchar2fs
   120                          	EXTERN ___uchar2fs_callee
   121                          	EXTERN ___uint2fs
   122                          	EXTERN ___uint2fs_callee
   123                          	EXTERN ___ulong2fs
   124                          	EXTERN ___ulong2fs_callee
   125                          	EXTERN ___ulonglong2fs
   126                          	EXTERN ___ulonglong2fs_callee
   127                          	EXTERN ____sdcc_2_copy_src_mhl_dst_deix
   128                          	EXTERN ____sdcc_2_copy_src_mhl_dst_bcix
   129                          	EXTERN ____sdcc_4_copy_src_mhl_dst_deix
   130                          	EXTERN ____sdcc_4_copy_src_mhl_dst_bcix
   131                          	EXTERN ____sdcc_4_copy_src_mhl_dst_mbc
   132                          	EXTERN ____sdcc_4_ldi_nosave_bc
   133                          	EXTERN ____sdcc_4_ldi_save_bc
   134                          	EXTERN ____sdcc_4_push_hlix
   135                          	EXTERN ____sdcc_4_push_mhl
   136                          	EXTERN ____sdcc_lib_setmem_hl
   137                          	EXTERN ____sdcc_ll_add_de_bc_hl
   138                          	EXTERN ____sdcc_ll_add_de_bc_hlix
   139                          	EXTERN ____sdcc_ll_add_de_hlix_bc
   140                          	EXTERN ____sdcc_ll_add_de_hlix_bcix
   141                          	EXTERN ____sdcc_ll_add_deix_bc_hl
   142                          	EXTERN ____sdcc_ll_add_deix_hlix
   143                          	EXTERN ____sdcc_ll_add_hlix_bc_deix
   144                          	EXTERN ____sdcc_ll_add_hlix_deix_bc
   145                          	EXTERN ____sdcc_ll_add_hlix_deix_bcix
   146                          	EXTERN ____sdcc_ll_asr_hlix_a
   147                          	EXTERN ____sdcc_ll_asr_mbc_a
   148                          	EXTERN ____sdcc_ll_copy_src_de_dst_hlix
   149                          	EXTERN ____sdcc_ll_copy_src_de_dst_hlsp
   150                          	EXTERN ____sdcc_ll_copy_src_deix_dst_hl
   151                          	EXTERN ____sdcc_ll_copy_src_deix_dst_hlix
   152                          	EXTERN ____sdcc_ll_copy_src_deixm_dst_hlsp
   153                          	EXTERN ____sdcc_ll_copy_src_desp_dst_hlsp
   154                          	EXTERN ____sdcc_ll_copy_src_hl_dst_de
   155                          	EXTERN ____sdcc_ll_copy_src_hlsp_dst_de
   156                          	EXTERN ____sdcc_ll_copy_src_hlsp_dst_deixm
   157                          	EXTERN ____sdcc_ll_lsl_hlix_a
   158                          	EXTERN ____sdcc_ll_lsl_mbc_a
   159                          	EXTERN ____sdcc_ll_lsr_hlix_a
   160                          	EXTERN ____sdcc_ll_lsr_mbc_a
   161                          	EXTERN ____sdcc_ll_push_hlix
   162                          	EXTERN ____sdcc_ll_push_mhl
   163                          	EXTERN ____sdcc_ll_sub_de_bc_hl
   164                          	EXTERN ____sdcc_ll_sub_de_bc_hlix
   165                          	EXTERN ____sdcc_ll_sub_de_hlix_bc
   166                          	EXTERN ____sdcc_ll_sub_de_hlix_bcix
   167                          	EXTERN ____sdcc_ll_sub_deix_bc_hl
   168                          	EXTERN ____sdcc_ll_sub_deix_hlix
   169                          	EXTERN ____sdcc_ll_sub_hlix_bc_deix
   170                          	EXTERN ____sdcc_ll_sub_hlix_deix_bc
   171                          	EXTERN ____sdcc_ll_sub_hlix_deix_bcix
   172                          	EXTERN ____sdcc_load_debc_deix
   173                          	EXTERN ____sdcc_load_dehl_deix
   174                          	EXTERN ____sdcc_load_debc_mhl
   175                          	EXTERN ____sdcc_load_hlde_mhl
   176                          	EXTERN ____sdcc_store_dehl_bcix
   177                          	EXTERN ____sdcc_store_debc_hlix
   178                          	EXTERN ____sdcc_store_debc_mhl
   179                          	EXTERN ____sdcc_cpu_pop_ei
   180                          	EXTERN ____sdcc_cpu_pop_ei_jp
   181                          	EXTERN ____sdcc_cpu_push_di
   182                          	EXTERN ____sdcc_outi
   183                          	EXTERN ____sdcc_outi_128
   184                          	EXTERN ____sdcc_outi_256
   185                          	EXTERN ____sdcc_ldi
   186                          	EXTERN ____sdcc_ldi_128
   187                          	EXTERN ____sdcc_ldi_256
   188                          	EXTERN ____sdcc_4_copy_srcd_hlix_dst_deix
   189                          	EXTERN ____sdcc_4_and_src_mbc_mhl_dst_deix
   190                          	EXTERN ____sdcc_4_or_src_mbc_mhl_dst_deix
   191                          	EXTERN ____sdcc_4_xor_src_mbc_mhl_dst_deix
   192                          	EXTERN ____sdcc_4_or_src_dehl_dst_bcix
   193                          	EXTERN ____sdcc_4_xor_src_dehl_dst_bcix
   194                          	EXTERN ____sdcc_4_and_src_dehl_dst_bcix
   195                          	EXTERN ____sdcc_4_xor_src_mbc_mhl_dst_debc
   196                          	EXTERN ____sdcc_4_or_src_mbc_mhl_dst_debc
   197                          	EXTERN ____sdcc_4_and_src_mbc_mhl_dst_debc
   198                          	EXTERN ____sdcc_4_cpl_src_mhl_dst_debc
   199                          	EXTERN ____sdcc_4_xor_src_debc_mhl_dst_debc
   200                          	EXTERN ____sdcc_4_or_src_debc_mhl_dst_debc
   201                          	EXTERN ____sdcc_4_and_src_debc_mhl_dst_debc
   202                          	EXTERN ____sdcc_4_and_src_debc_hlix_dst_debc
   203                          	EXTERN ____sdcc_4_or_src_debc_hlix_dst_debc
   204                          	EXTERN ____sdcc_4_xor_src_debc_hlix_dst_debc
   205                          	.zxn
   206                          
   207                          ;--------------------------------------------------------
   208                          ; Public variables in this module
   209                          ;--------------------------------------------------------
   210                          	GLOBAL _main
   211                          	GLOBAL _swap
   212                          	GLOBAL _p2
   213                          	GLOBAL _p1
   214                          	GLOBAL _p0
   215                          	GLOBAL _y2
   216                          	GLOBAL _x2
   217                          	GLOBAL _y1
   218                          	GLOBAL _x1
   219                          	GLOBAL _colour
   220                          	GLOBAL _y
   221                          	GLOBAL _x
   222                          	GLOBAL _max
   223                          	GLOBAL _interpolate
   224                          	GLOBAL _drawFillTrig
   225                          ;--------------------------------------------------------
   226                          ; Externals used
   227                          ;--------------------------------------------------------
   228                          	GLOBAL _drawLine
   229                          	GLOBAL _drawL2
   230                          	GLOBAL _PlotPixel8KCol
   231                          	GLOBAL _PlotPixel8K
   232                          	GLOBAL _clearL2
   233                          	GLOBAL _initL2
   234                          	GLOBAL _setCPU
   235                          	GLOBAL _stop
   236                          	GLOBAL _env_getenv_callee
   237                          	GLOBAL _env_getenv
   238                          	GLOBAL _getenv_ex_callee
   239                          	GLOBAL _getenv_ex
   240                          	GLOBAL _getenv_fastcall
   241                          	GLOBAL _getenv
   242                          	GLOBAL _mkstemp_ex_fastcall
   243                          	GLOBAL _mkstemp_ex
   244                          	GLOBAL _ulltoa_callee
   245                          	GLOBAL _ulltoa
   246                          	GLOBAL _strtoull_callee
   247                          	GLOBAL _strtoull
   248                          	GLOBAL _strtoll_callee
   249                          	GLOBAL _strtoll
   250                          	GLOBAL _lltoa_callee
   251                          	GLOBAL _lltoa
   252                          	GLOBAL _llabs_callee
   253                          	GLOBAL _llabs
   254                          	GLOBAL __lldivu__callee
   255                          	GLOBAL __lldivu_
   256                          	GLOBAL __lldiv__callee
   257                          	GLOBAL __lldiv_
   258                          	GLOBAL _atoll_callee
   259                          	GLOBAL _atoll
   260                          	GLOBAL _realloc_unlocked_callee
   261                          	GLOBAL _realloc_unlocked
   262                          	GLOBAL _malloc_unlocked_fastcall
   263                          	GLOBAL _malloc_unlocked
   264                          	GLOBAL _free_unlocked_fastcall
   265                          	GLOBAL _free_unlocked
   266                          	GLOBAL _calloc_unlocked_callee
   267                          	GLOBAL _calloc_unlocked
   268                          	GLOBAL _aligned_alloc_unlocked_callee
   269                          	GLOBAL _aligned_alloc_unlocked
   270                          	GLOBAL _realloc_callee
   271                          	GLOBAL _realloc
   272                          	GLOBAL _malloc_fastcall
   273                          	GLOBAL _malloc
   274                          	GLOBAL _free_fastcall
   275                          	GLOBAL _free
   276                          	GLOBAL _calloc_callee
   277                          	GLOBAL _calloc
   278                          	GLOBAL _aligned_alloc_callee
   279                          	GLOBAL _aligned_alloc
   280                          	GLOBAL _utoa_callee
   281                          	GLOBAL _utoa
   282                          	GLOBAL _ultoa_callee
   283                          	GLOBAL _ultoa
   284                          	GLOBAL _system_fastcall
   285                          	GLOBAL _system
   286                          	GLOBAL _strtoul_callee
   287                          	GLOBAL _strtoul
   288                          	GLOBAL _strtol_callee
   289                          	GLOBAL _strtol
   290                          	GLOBAL _strtof_callee
   291                          	GLOBAL _strtof
   292                          	GLOBAL _strtod_callee
   293                          	GLOBAL _strtod
   294                          	GLOBAL _srand_fastcall
   295                          	GLOBAL _srand
   296                          	GLOBAL _rand
   297                          	GLOBAL _quick_exit_fastcall
   298                          	GLOBAL _quick_exit
   299                          	GLOBAL _qsort_callee
   300                          	GLOBAL _qsort
   301                          	GLOBAL _ltoa_callee
   302                          	GLOBAL _ltoa
   303                          	GLOBAL _labs_fastcall
   304                          	GLOBAL _labs
   305                          	GLOBAL _itoa_callee
   306                          	GLOBAL _itoa
   307                          	GLOBAL _ftoh_callee
   308                          	GLOBAL _ftoh
   309                          	GLOBAL _ftog_callee
   310                          	GLOBAL _ftog
   311                          	GLOBAL _ftoe_callee
   312                          	GLOBAL _ftoe
   313                          	GLOBAL _ftoa_callee
   314                          	GLOBAL _ftoa
   315                          	GLOBAL _exit_fastcall
   316                          	GLOBAL _exit
   317                          	GLOBAL _dtoh_callee
   318                          	GLOBAL _dtoh
   319                          	GLOBAL _dtog_callee
   320                          	GLOBAL _dtog
   321                          	GLOBAL _dtoe_callee
   322                          	GLOBAL _dtoe
   323                          	GLOBAL _dtoa_callee
   324                          	GLOBAL _dtoa
   325                          	GLOBAL _bsearch_callee
   326                          	GLOBAL _bsearch
   327                          	GLOBAL _atol_fastcall
   328                          	GLOBAL _atol
   329                          	GLOBAL _atoi_fastcall
   330                          	GLOBAL _atoi
   331                          	GLOBAL _atof_fastcall
   332                          	GLOBAL _atof
   333                          	GLOBAL _atexit_fastcall
   334                          	GLOBAL _atexit
   335                          	GLOBAL _at_quick_exit_fastcall
   336                          	GLOBAL _at_quick_exit
   337                          	GLOBAL _abs_fastcall
   338                          	GLOBAL _abs
   339                          	GLOBAL _abort
   340                          	GLOBAL __strtou__callee
   341                          	GLOBAL __strtou_
   342                          	GLOBAL __strtoi__callee
   343                          	GLOBAL __strtoi_
   344                          	GLOBAL __random_uniform_xor_8__fastcall
   345                          	GLOBAL __random_uniform_xor_8_
   346                          	GLOBAL __random_uniform_xor_32__fastcall
   347                          	GLOBAL __random_uniform_xor_32_
   348                          	GLOBAL __random_uniform_cmwc_8__fastcall
   349                          	GLOBAL __random_uniform_cmwc_8_
   350                          	GLOBAL __shellsort__callee
   351                          	GLOBAL __shellsort_
   352                          	GLOBAL __quicksort__callee
   353                          	GLOBAL __quicksort_
   354                          	GLOBAL __insertion_sort__callee
   355                          	GLOBAL __insertion_sort_
   356                          	GLOBAL __ldivu__callee
   357                          	GLOBAL __ldivu_
   358                          	GLOBAL __ldiv__callee
   359                          	GLOBAL __ldiv_
   360                          	GLOBAL __divu__callee
   361                          	GLOBAL __divu_
   362                          	GLOBAL __div__callee
   363                          	GLOBAL __div_
   364                          	GLOBAL _tmpnam_ex_fastcall
   365                          	GLOBAL _tmpnam_ex
   366                          	GLOBAL _tmpnam_fastcall
   367                          	GLOBAL _tmpnam
   368                          	GLOBAL _vscanf_unlocked_callee
   369                          	GLOBAL _vscanf_unlocked
   370                          	GLOBAL _vprintf_unlocked_callee
   371                          	GLOBAL _vprintf_unlocked
   372                          	GLOBAL _vfscanf_unlocked_callee
   373                          	GLOBAL _vfscanf_unlocked
   374                          	GLOBAL _vfprintf_unlocked_callee
   375                          	GLOBAL _vfprintf_unlocked
   376                          	GLOBAL _ungetc_unlocked_callee
   377                          	GLOBAL _ungetc_unlocked
   378                          	GLOBAL _scanf_unlocked
   379                          	GLOBAL _rewind_unlocked_fastcall
   380                          	GLOBAL _rewind_unlocked
   381                          	GLOBAL _puts_unlocked_fastcall
   382                          	GLOBAL _puts_unlocked
   383                          	GLOBAL _putchar_unlocked_fastcall
   384                          	GLOBAL _putchar_unlocked
   385                          	GLOBAL _putc_unlocked_callee
   386                          	GLOBAL _putc_unlocked
   387                          	GLOBAL _printf_unlocked
   388                          	GLOBAL _gets_unlocked_fastcall
   389                          	GLOBAL _gets_unlocked
   390                          	GLOBAL _getline_unlocked_callee
   391                          	GLOBAL _getline_unlocked
   392                          	GLOBAL _getdelim_unlocked_callee
   393                          	GLOBAL _getdelim_unlocked
   394                          	GLOBAL _getchar_unlocked
   395                          	GLOBAL _getc_unlocked_fastcall
   396                          	GLOBAL _getc_unlocked
   397                          	GLOBAL _fwrite_unlocked_callee
   398                          	GLOBAL _fwrite_unlocked
   399                          	GLOBAL _ftell_unlocked_fastcall
   400                          	GLOBAL _ftell_unlocked
   401                          	GLOBAL _fsetpos_unlocked_callee
   402                          	GLOBAL _fsetpos_unlocked
   403                          	GLOBAL _fseek_unlocked_callee
   404                          	GLOBAL _fseek_unlocked
   405                          	GLOBAL _fscanf_unlocked
   406                          	GLOBAL _freopen_unlocked_callee
   407                          	GLOBAL _freopen_unlocked
   408                          	GLOBAL _fread_unlocked_callee
   409                          	GLOBAL _fread_unlocked
   410                          	GLOBAL _fputs_unlocked_callee
   411                          	GLOBAL _fputs_unlocked
   412                          	GLOBAL _fputc_unlocked_callee
   413                          	GLOBAL _fputc_unlocked
   414                          	GLOBAL _fprintf_unlocked
   415                          	GLOBAL _fileno_unlocked_fastcall
   416                          	GLOBAL _fileno_unlocked
   417                          	GLOBAL _fgets_unlocked_callee
   418                          	GLOBAL _fgets_unlocked
   419                          	GLOBAL _fgetpos_unlocked_callee
   420                          	GLOBAL _fgetpos_unlocked
   421                          	GLOBAL _fgetc_unlocked_fastcall
   422                          	GLOBAL _fgetc_unlocked
   423                          	GLOBAL _fflush_unlocked_fastcall
   424                          	GLOBAL _fflush_unlocked
   425                          	GLOBAL _ferror_unlocked_fastcall
   426                          	GLOBAL _ferror_unlocked
   427                          	GLOBAL _feof_unlocked_fastcall
   428                          	GLOBAL _feof_unlocked
   429                          	GLOBAL _fclose_unlocked_fastcall
   430                          	GLOBAL _fclose_unlocked
   431                          	GLOBAL _clearerr_unlocked_fastcall
   432                          	GLOBAL _clearerr_unlocked
   433                          	GLOBAL _vsscanf_callee
   434                          	GLOBAL _vsscanf
   435                          	GLOBAL _vsprintf_callee
   436                          	GLOBAL _vsprintf
   437                          	GLOBAL _vsnprintf_callee
   438                          	GLOBAL _vsnprintf
   439                          	GLOBAL _vscanf_callee
   440                          	GLOBAL _vscanf
   441                          	GLOBAL _vprintf_callee
   442                          	GLOBAL _vprintf
   443                          	GLOBAL _vfscanf_callee
   444                          	GLOBAL _vfscanf
   445                          	GLOBAL _vfprintf_callee
   446                          	GLOBAL _vfprintf
   447                          	GLOBAL _vasprintf_callee
   448                          	GLOBAL _vasprintf
   449                          	GLOBAL _ungetc_callee
   450                          	GLOBAL _ungetc
   451                          	GLOBAL _sscanf
   452                          	GLOBAL _sprintf
   453                          	GLOBAL _snprintf
   454                          	GLOBAL _scanf
   455                          	GLOBAL _rewind_fastcall
   456                          	GLOBAL _rewind
   457                          	GLOBAL _puts_fastcall
   458                          	GLOBAL _puts
   459                          	GLOBAL _putchar_fastcall
   460                          	GLOBAL _putchar
   461                          	GLOBAL _putc_callee
   462                          	GLOBAL _putc
   463                          	GLOBAL _printf
   464                          	GLOBAL _perror_fastcall
   465                          	GLOBAL _perror
   466                          	GLOBAL _open_memstream_callee
   467                          	GLOBAL _open_memstream
   468                          	GLOBAL _obstack_vprintf_callee
   469                          	GLOBAL _obstack_vprintf
   470                          	GLOBAL _obstack_printf
   471                          	GLOBAL _gets_fastcall
   472                          	GLOBAL _gets
   473                          	GLOBAL _getline_callee
   474                          	GLOBAL _getline
   475                          	GLOBAL _getdelim_callee
   476                          	GLOBAL _getdelim
   477                          	GLOBAL _getchar
   478                          	GLOBAL _getc_fastcall
   479                          	GLOBAL _getc
   480                          	GLOBAL _fwrite_callee
   481                          	GLOBAL _fwrite
   482                          	GLOBAL _funlockfile_fastcall
   483                          	GLOBAL _funlockfile
   484                          	GLOBAL _ftrylockfile_fastcall
   485                          	GLOBAL _ftrylockfile
   486                          	GLOBAL _ftell_fastcall
   487                          	GLOBAL _ftell
   488                          	GLOBAL _fsetpos_callee
   489                          	GLOBAL _fsetpos
   490                          	GLOBAL _fseek_callee
   491                          	GLOBAL _fseek
   492                          	GLOBAL _fscanf
   493                          	GLOBAL _freopen_callee
   494                          	GLOBAL _freopen
   495                          	GLOBAL _fread_callee
   496                          	GLOBAL _fread
   497                          	GLOBAL _fputs_callee
   498                          	GLOBAL _fputs
   499                          	GLOBAL _fputc_callee
   500                          	GLOBAL _fputc
   501                          	GLOBAL _fprintf
   502                          	GLOBAL _fopen_callee
   503                          	GLOBAL _fopen
   504                          	GLOBAL _fmemopen_callee
   505                          	GLOBAL _fmemopen
   506                          	GLOBAL _flockfile_fastcall
   507                          	GLOBAL _flockfile
   508                          	GLOBAL _fileno_fastcall
   509                          	GLOBAL _fileno
   510                          	GLOBAL _fgets_callee
   511                          	GLOBAL _fgets
   512                          	GLOBAL _fgetpos_callee
   513                          	GLOBAL _fgetpos
   514                          	GLOBAL _fgetc_fastcall
   515                          	GLOBAL _fgetc
   516                          	GLOBAL _fflush_fastcall
   517                          	GLOBAL _fflush
   518                          	GLOBAL _ferror_fastcall
   519                          	GLOBAL _ferror
   520                          	GLOBAL _feof_fastcall
   521                          	GLOBAL _feof
   522                          	GLOBAL _fdopen_callee
   523                          	GLOBAL _fdopen
   524                          	GLOBAL _fclose_fastcall
   525                          	GLOBAL _fclose
   526                          	GLOBAL _clearerr_fastcall
   527                          	GLOBAL _clearerr
   528                          	GLOBAL _asprintf
   529                          	GLOBAL __fmemopen__callee
   530                          	GLOBAL __fmemopen_
   531                          	GLOBAL _zx_pattern_fill_callee
   532                          	GLOBAL _zx_pattern_fill
   533                          	GLOBAL _tshr_saddrpup_fastcall
   534                          	GLOBAL _tshr_saddrpup
   535                          	GLOBAL _tshr_saddrpright_callee
   536                          	GLOBAL _tshr_saddrpright
   537                          	GLOBAL _tshr_saddrpleft_callee
   538                          	GLOBAL _tshr_saddrpleft
   539                          	GLOBAL _tshr_saddrpdown_fastcall
   540                          	GLOBAL _tshr_saddrpdown
   541                          	GLOBAL _tshr_saddrcup_fastcall
   542                          	GLOBAL _tshr_saddrcup
   543                          	GLOBAL _tshr_saddrcright_fastcall
   544                          	GLOBAL _tshr_saddrcright
   545                          	GLOBAL _tshr_saddrcleft_fastcall
   546                          	GLOBAL _tshr_saddrcleft
   547                          	GLOBAL _tshr_saddrcdown_fastcall
   548                          	GLOBAL _tshr_saddrcdown
   549                          	GLOBAL _tshr_saddr2py_fastcall
   550                          	GLOBAL _tshr_saddr2py
   551                          	GLOBAL _tshr_saddr2px_fastcall
   552                          	GLOBAL _tshr_saddr2px
   553                          	GLOBAL _tshr_saddr2cy_fastcall
   554                          	GLOBAL _tshr_saddr2cy
   555                          	GLOBAL _tshr_saddr2cx_fastcall
   556                          	GLOBAL _tshr_saddr2cx
   557                          	GLOBAL _tshr_py2saddr_fastcall
   558                          	GLOBAL _tshr_py2saddr
   559                          	GLOBAL _tshr_pxy2saddr_callee
   560                          	GLOBAL _tshr_pxy2saddr
   561                          	GLOBAL _tshr_px2bitmask_fastcall
   562                          	GLOBAL _tshr_px2bitmask
   563                          	GLOBAL _tshr_cy2saddr_fastcall
   564                          	GLOBAL _tshr_cy2saddr
   565                          	GLOBAL _tshr_cxy2saddr_callee
   566                          	GLOBAL _tshr_cxy2saddr
   567                          	GLOBAL _tshr_bitmask2px_fastcall
   568                          	GLOBAL _tshr_bitmask2px
   569                          	GLOBAL _tshc_saddrpup_fastcall
   570                          	GLOBAL _tshc_saddrpup
   571                          	GLOBAL _tshc_saddrpright_callee
   572                          	GLOBAL _tshc_saddrpright
   573                          	GLOBAL _tshc_saddrpleft_callee
   574                          	GLOBAL _tshc_saddrpleft
   575                          	GLOBAL _tshc_saddrpdown_fastcall
   576                          	GLOBAL _tshc_saddrpdown
   577                          	GLOBAL _tshc_saddrcup_fastcall
   578                          	GLOBAL _tshc_saddrcup
   579                          	GLOBAL _tshc_saddrcright_fastcall
   580                          	GLOBAL _tshc_saddrcright
   581                          	GLOBAL _tshc_saddrcleft_fastcall
   582                          	GLOBAL _tshc_saddrcleft
   583                          	GLOBAL _tshc_saddrcdown_fastcall
   584                          	GLOBAL _tshc_saddrcdown
   585                          	GLOBAL _tshc_saddr2py_fastcall
   586                          	GLOBAL _tshc_saddr2py
   587                          	GLOBAL _tshc_saddr2px_fastcall
   588                          	GLOBAL _tshc_saddr2px
   589                          	GLOBAL _tshc_saddr2cy_fastcall
   590                          	GLOBAL _tshc_saddr2cy
   591                          	GLOBAL _tshc_saddr2cx_fastcall
   592                          	GLOBAL _tshc_saddr2cx
   593                          	GLOBAL _tshc_saddr2aaddr_fastcall
   594                          	GLOBAL _tshc_saddr2aaddr
   595                          	GLOBAL _tshc_py2saddr_fastcall
   596                          	GLOBAL _tshc_py2saddr
   597                          	GLOBAL _tshc_py2aaddr_fastcall
   598                          	GLOBAL _tshc_py2aaddr
   599                          	GLOBAL _tshc_pxy2saddr_callee
   600                          	GLOBAL _tshc_pxy2saddr
   601                          	GLOBAL _tshc_pxy2aaddr_callee
   602                          	GLOBAL _tshc_pxy2aaddr
   603                          	GLOBAL _tshc_px2bitmask_fastcall
   604                          	GLOBAL _tshc_px2bitmask
   605                          	GLOBAL _tshc_cy2saddr_fastcall
   606                          	GLOBAL _tshc_cy2saddr
   607                          	GLOBAL _tshc_cy2aaddr_fastcall
   608                          	GLOBAL _tshc_cy2aaddr
   609                          	GLOBAL _tshc_cxy2saddr_callee
   610                          	GLOBAL _tshc_cxy2saddr
   611                          	GLOBAL _tshc_cxy2aaddr_callee
   612                          	GLOBAL _tshc_cxy2aaddr
   613                          	GLOBAL _tshc_bitmask2px_fastcall
   614                          	GLOBAL _tshc_bitmask2px
   615                          	GLOBAL _tshc_aaddrpup_fastcall
   616                          	GLOBAL _tshc_aaddrpup
   617                          	GLOBAL _tshc_aaddrpright_callee
   618                          	GLOBAL _tshc_aaddrpright
   619                          	GLOBAL _tshc_aaddrpleft_callee
   620                          	GLOBAL _tshc_aaddrpleft
   621                          	GLOBAL _tshc_aaddrpdown_fastcall
   622                          	GLOBAL _tshc_aaddrpdown
   623                          	GLOBAL _tshc_aaddrcup_fastcall
   624                          	GLOBAL _tshc_aaddrcup
   625                          	GLOBAL _tshc_aaddrcright_fastcall
   626                          	GLOBAL _tshc_aaddrcright
   627                          	GLOBAL _tshc_aaddrcleft_fastcall
   628                          	GLOBAL _tshc_aaddrcleft
   629                          	GLOBAL _tshc_aaddrcdown_fastcall
   630                          	GLOBAL _tshc_aaddrcdown
   631                          	GLOBAL _tshc_aaddr2saddr_fastcall
   632                          	GLOBAL _tshc_aaddr2saddr
   633                          	GLOBAL _tshc_aaddr2py_fastcall
   634                          	GLOBAL _tshc_aaddr2py
   635                          	GLOBAL _tshc_aaddr2px_fastcall
   636                          	GLOBAL _tshc_aaddr2px
   637                          	GLOBAL _tshc_aaddr2cy_fastcall
   638                          	GLOBAL _tshc_aaddr2cy
   639                          	GLOBAL _tshc_aaddr2cx_fastcall
   640                          	GLOBAL _tshc_aaddr2cx
   641                          	GLOBAL _zx_saddrpup_fastcall
   642                          	GLOBAL _zx_saddrpup
   643                          	GLOBAL _zx_saddrpright_callee
   644                          	GLOBAL _zx_saddrpright
   645                          	GLOBAL _zx_saddrpleft_callee
   646                          	GLOBAL _zx_saddrpleft
   647                          	GLOBAL _zx_saddrpdown_fastcall
   648                          	GLOBAL _zx_saddrpdown
   649                          	GLOBAL _zx_saddrcup_fastcall
   650                          	GLOBAL _zx_saddrcup
   651                          	GLOBAL _zx_saddrcright_fastcall
   652                          	GLOBAL _zx_saddrcright
   653                          	GLOBAL _zx_saddrcleft_fastcall
   654                          	GLOBAL _zx_saddrcleft
   655                          	GLOBAL _zx_saddrcdown_fastcall
   656                          	GLOBAL _zx_saddrcdown
   657                          	GLOBAL _zx_saddr2py_fastcall
   658                          	GLOBAL _zx_saddr2py
   659                          	GLOBAL _zx_saddr2px_fastcall
   660                          	GLOBAL _zx_saddr2px
   661                          	GLOBAL _zx_saddr2cy_fastcall
   662                          	GLOBAL _zx_saddr2cy
   663                          	GLOBAL _zx_saddr2cx_fastcall
   664                          	GLOBAL _zx_saddr2cx
   665                          	GLOBAL _zx_saddr2aaddr_fastcall
   666                          	GLOBAL _zx_saddr2aaddr
   667                          	GLOBAL _zx_py2saddr_fastcall
   668                          	GLOBAL _zx_py2saddr
   669                          	GLOBAL _zx_py2aaddr_fastcall
   670                          	GLOBAL _zx_py2aaddr
   671                          	GLOBAL _zx_pxy2saddr_callee
   672                          	GLOBAL _zx_pxy2saddr
   673                          	GLOBAL _zx_pxy2aaddr_callee
   674                          	GLOBAL _zx_pxy2aaddr
   675                          	GLOBAL _zx_px2bitmask_fastcall
   676                          	GLOBAL _zx_px2bitmask
   677                          	GLOBAL _zx_cy2saddr_fastcall
   678                          	GLOBAL _zx_cy2saddr
   679                          	GLOBAL _zx_cy2aaddr_fastcall
   680                          	GLOBAL _zx_cy2aaddr
   681                          	GLOBAL _zx_cxy2saddr_callee
   682                          	GLOBAL _zx_cxy2saddr
   683                          	GLOBAL _zx_cxy2aaddr_callee
   684                          	GLOBAL _zx_cxy2aaddr
   685                          	GLOBAL _zx_bitmask2px_fastcall
   686                          	GLOBAL _zx_bitmask2px
   687                          	GLOBAL _zx_aaddrcup_fastcall
   688                          	GLOBAL _zx_aaddrcup
   689                          	GLOBAL _zx_aaddrcright_fastcall
   690                          	GLOBAL _zx_aaddrcright
   691                          	GLOBAL _zx_aaddrcleft_fastcall
   692                          	GLOBAL _zx_aaddrcleft
   693                          	GLOBAL _zx_aaddrcdown_fastcall
   694                          	GLOBAL _zx_aaddrcdown
   695                          	GLOBAL _zx_aaddr2saddr_fastcall
   696                          	GLOBAL _zx_aaddr2saddr
   697                          	GLOBAL _zx_aaddr2py_fastcall
   698                          	GLOBAL _zx_aaddr2py
   699                          	GLOBAL _zx_aaddr2px_fastcall
   700                          	GLOBAL _zx_aaddr2px
   701                          	GLOBAL _zx_aaddr2cy_fastcall
   702                          	GLOBAL _zx_aaddr2cy
   703                          	GLOBAL _zx_aaddr2cx_fastcall
   704                          	GLOBAL _zx_aaddr2cx
   705                          	GLOBAL _tshr_visit_wc_pix_callee
   706                          	GLOBAL _tshr_visit_wc_pix
   707                          	GLOBAL _tshr_scroll_wc_up_pix_callee
   708                          	GLOBAL _tshr_scroll_wc_up_pix
   709                          	GLOBAL _tshr_scroll_up_pix_callee
   710                          	GLOBAL _tshr_scroll_up_pix
   711                          	GLOBAL _tshr_scroll_up_callee
   712                          	GLOBAL _tshr_scroll_up
   713                          	GLOBAL _tshr_cls_wc_pix_callee
   714                          	GLOBAL _tshr_cls_wc_pix
   715                          	GLOBAL _tshr_cls_pix_fastcall
   716                          	GLOBAL _tshr_cls_pix
   717                          	GLOBAL _tshr_cls_attr_fastcall
   718                          	GLOBAL _tshr_cls_attr
   719                          	GLOBAL _tshr_cls_fastcall
   720                          	GLOBAL _tshr_cls
   721                          	GLOBAL _tshc_visit_wc_pix_callee
   722                          	GLOBAL _tshc_visit_wc_pix
   723                          	GLOBAL _tshc_visit_wc_attr_callee
   724                          	GLOBAL _tshc_visit_wc_attr
   725                          	GLOBAL _tshc_scroll_wc_up_pix_callee
   726                          	GLOBAL _tshc_scroll_wc_up_pix
   727                          	GLOBAL _tshc_scroll_wc_up_attr_callee
   728                          	GLOBAL _tshc_scroll_wc_up_attr
   729                          	GLOBAL _tshc_scroll_wc_up_callee
   730                          	GLOBAL _tshc_scroll_wc_up
   731                          	GLOBAL _tshc_scroll_up_pix_callee
   732                          	GLOBAL _tshc_scroll_up_pix
   733                          	GLOBAL _tshc_scroll_up_attr_callee
   734                          	GLOBAL _tshc_scroll_up_attr
   735                          	GLOBAL _tshc_scroll_up_callee
   736                          	GLOBAL _tshc_scroll_up
   737                          	GLOBAL _tshc_cls_wc_pix_callee
   738                          	GLOBAL _tshc_cls_wc_pix
   739                          	GLOBAL _tshc_cls_wc_attr_callee
   740                          	GLOBAL _tshc_cls_wc_attr
   741                          	GLOBAL _tshc_cls_wc_callee
   742                          	GLOBAL _tshc_cls_wc
   743                          	GLOBAL _tshc_cls_pix_fastcall
   744                          	GLOBAL _tshc_cls_pix
   745                          	GLOBAL _tshc_cls_attr_fastcall
   746                          	GLOBAL _tshc_cls_attr
   747                          	GLOBAL _tshc_cls_fastcall
   748                          	GLOBAL _tshc_cls
   749                          	GLOBAL _zx_visit_wc_pix_callee
   750                          	GLOBAL _zx_visit_wc_pix
   751                          	GLOBAL _zx_visit_wc_attr_callee
   752                          	GLOBAL _zx_visit_wc_attr
   753                          	GLOBAL _zx_scroll_wc_up_pix_callee
   754                          	GLOBAL _zx_scroll_wc_up_pix
   755                          	GLOBAL _zx_scroll_wc_up_attr_callee
   756                          	GLOBAL _zx_scroll_wc_up_attr
   757                          	GLOBAL _zx_scroll_wc_up_callee
   758                          	GLOBAL _zx_scroll_wc_up
   759                          	GLOBAL _zx_scroll_up_pix_callee
   760                          	GLOBAL _zx_scroll_up_pix
   761                          	GLOBAL _zx_scroll_up_attr_callee
   762                          	GLOBAL _zx_scroll_up_attr
   763                          	GLOBAL _zx_scroll_up_callee
   764                          	GLOBAL _zx_scroll_up
   765                          	GLOBAL _zx_cls_wc_pix_callee
   766                          	GLOBAL _zx_cls_wc_pix
   767                          	GLOBAL _zx_cls_wc_attr_callee
   768                          	GLOBAL _zx_cls_wc_attr
   769                          	GLOBAL _zx_cls_wc_callee
   770                          	GLOBAL _zx_cls_wc
   771                          	GLOBAL _zx_cls_pix_fastcall
   772                          	GLOBAL _zx_cls_pix
   773                          	GLOBAL _zx_cls_attr_fastcall
   774                          	GLOBAL _zx_cls_attr
   775                          	GLOBAL _zx_cls_fastcall
   776                          	GLOBAL _zx_cls
   777                          	GLOBAL _zx_border_fastcall
   778                          	GLOBAL _zx_border
   779                          	GLOBAL _ts_vmod_fastcall
   780                          	GLOBAL _ts_vmod
   781                          	GLOBAL _zx_tape_verify_block_callee
   782                          	GLOBAL _zx_tape_verify_block
   783                          	GLOBAL _zx_tape_save_block_callee
   784                          	GLOBAL _zx_tape_save_block
   785                          	GLOBAL _zx_tape_load_block_callee
   786                          	GLOBAL _zx_tape_load_block
   787                          	GLOBAL _check_version_nextzxos_fastcall
   788                          	GLOBAL _check_version_nextzxos
   789                          	GLOBAL _check_version_esxdos_fastcall
   790                          	GLOBAL _check_version_esxdos
   791                          	GLOBAL _check_version_core_fastcall
   792                          	GLOBAL _check_version_core
   793                          	GLOBAL _zxn_mangle_bank_state_fastcall
   794                          	GLOBAL _zxn_mangle_bank_state
   795                          	GLOBAL _zxn_write_sysvar_bank_state_fastcall
   796                          	GLOBAL _zxn_write_sysvar_bank_state
   797                          	GLOBAL _zxn_read_sysvar_bank_state
   798                          	GLOBAL _zxn_write_bank_state_fastcall
   799                          	GLOBAL _zxn_write_bank_state
   800                          	GLOBAL _zxn_write_mmu_state_fastcall
   801                          	GLOBAL _zxn_write_mmu_state
   802                          	GLOBAL _zxn_read_mmu_state_fastcall
   803                          	GLOBAL _zxn_read_mmu_state
   804                          	GLOBAL _zxn_page_from_addr_fastcall
   805                          	GLOBAL _zxn_page_from_addr
   806                          	GLOBAL _zxn_addr_from_page_fastcall
   807                          	GLOBAL _zxn_addr_from_page
   808                          	GLOBAL _zxn_addr_in_mmu_callee
   809                          	GLOBAL _zxn_addr_in_mmu
   810                          	GLOBAL _zxn_mmu_from_addr_fastcall
   811                          	GLOBAL _zxn_mmu_from_addr
   812                          	GLOBAL _zxn_addr_from_mmu_fastcall
   813                          	GLOBAL _zxn_addr_from_mmu
   814                          	GLOBAL _ZXN_READ_MMU7
   815                          	GLOBAL _ZXN_READ_MMU6
   816                          	GLOBAL _ZXN_READ_MMU5
   817                          	GLOBAL _ZXN_READ_MMU4
   818                          	GLOBAL _ZXN_READ_MMU3
   819                          	GLOBAL _ZXN_READ_MMU2
   820                          	GLOBAL _ZXN_READ_MMU1
   821                          	GLOBAL _ZXN_READ_MMU0
   822                          	GLOBAL _ZXN_WRITE_REG_callee
   823                          	GLOBAL _ZXN_WRITE_REG
   824                          	GLOBAL _ZXN_READ_REG_fastcall
   825                          	GLOBAL _ZXN_READ_REG
   826                          	GLOBAL _stderr
   827                          	GLOBAL _stdout
   828                          	GLOBAL _stdin
   829                          	GLOBAL __MAX_FOPEN
   830                          	GLOBAL _GLOBAL_ZXN_PORT_DFFD
   831                          	GLOBAL _GLOBAL_ZXN_PORT_7FFD
   832                          	GLOBAL _GLOBAL_ZXN_PORT_1FFD
   833                          	GLOBAL _GLOBAL_ZXN_PORT_FE
   834                          	GLOBAL _GLOBAL_TS_PORT_FE
   835                          	GLOBAL _GLOBAL_ZX_PORT_7FFD
   836                          	GLOBAL _GLOBAL_ZX_PORT_1FFD
   837                          	GLOBAL _GLOBAL_ZX_PORT_FE
   838                          ;--------------------------------------------------------
   839                          ; special function registers
   840                          ;--------------------------------------------------------
   841                          defc _IO_FE	=	0x00fe
   842                          defc _IO_FF	=	0x00ff
   843                          defc _IO_TIMEX_VIDEO_MODE	=	0x00ff
   844                          defc _IO_1FFD	=	0x1ffd
   845                          defc _IO_7FFD	=	0x7ffd
   846                          defc _IO_DFFD	=	0xdffd
   847                          defc _IO_0F	=	0x000f
   848                          defc _IO_DAC_L0	=	0x000f
   849                          defc _IO_1F	=	0x001f
   850                          defc _IO_DAC_L1	=	0x001f
   851                          defc _IO_4F	=	0x004f
   852                          defc _IO_DAC_R0	=	0x004f
   853                          defc _IO_5F	=	0x005f
   854                          defc _IO_DAC_R1	=	0x005f
   855                          defc _IO_DF	=	0x00df
   856                          defc _IO_DAC_M0	=	0x00df
   857                          defc _IO_FFFD	=	0xfffd
   858                          defc _IO_TURBOSOUND	=	0xfffd
   859                          defc _IO_AY_REG	=	0xfffd
   860                          defc _IO_BFFD	=	0xbffd
   861                          defc _IO_AY_DAT	=	0xbffd
   862                          defc _IO_123B	=	0x123b
   863                          defc _IO_LAYER_2_CONFIG	=	0x123b
   864                          defc _IO_303B	=	0x303b
   865                          defc _IO_SPRITE_SLOT	=	0x303b
   866                          defc _IO_SPRITE_FLAGS	=	0x303b
   867                          defc _IO_57	=	0x0057
   868                          defc _IO_SPRITE_ATTRIBUTE	=	0x0057
   869                          defc _IO_5B	=	0x005b
   870                          defc _IO_SPRITE_PATTERN	=	0x005b
   871                          defc _IO_143B	=	0x143b
   872                          defc _IO_UART_RX	=	0x143b
   873                          defc _IO_UART_BAUD_RATE	=	0x143b
   874                          defc _IO_133B	=	0x133b
   875                          defc _IO_UART_TX	=	0x133b
   876                          defc _IO_UART_STATUS	=	0x133b
   877                          defc _IO_6B	=	0x006b
   878                          defc _IO_DMA	=	0x006b
   879                          defc _IO_E3	=	0x00e3
   880                          defc _IO_DIVIDE_CONTROL	=	0x00e3
   881                          defc _IO_E7	=	0x00e7
   882                          defc _IO_SPI_CONTROL	=	0x00e7
   883                          defc _IO_SPI_STATUS	=	0x00e7
   884                          defc _IO_EB	=	0x00eb
   885                          defc _IO_SPI_DATA	=	0x00eb
   886                          defc _IO_103B	=	0x103b
   887                          defc _IO_I2C_SCL	=	0x103b
   888                          defc _IO_113B	=	0x113b
   889                          defc _IO_I2C_SDA	=	0x113b
   890                          defc _IO_LED_L	=	0x103b
   891                          defc _IO_243B	=	0x243b
   892                          defc _IO_NEXTREG_REG	=	0x243b
   893                          defc _IO_253B	=	0x253b
   894                          defc _IO_NEXTREG_DAT	=	0x253b
   895                          ;--------------------------------------------------------
   896                          ; ram data
   897                          ;--------------------------------------------------------
   898                          	SECTION bss_compiler
   899                          _loop:
   900  0000  0000              	DEFS 2
   901                          ;--------------------------------------------------------
   902                          ; ram data
   903                          ;--------------------------------------------------------
   904                          
   905                          IF 0
   906                          
   907                          ; .area _INITIALIZED removed by z88dk
   908                          
   909                          _x:
   910                          	DEFS 1
   911                          _y:
   912                          	DEFS 1
   913                          _p0:
   914                          	DEFS 2
   915                          _p1:
   916                          	DEFS 2
   917                          _p2:
   918                          	DEFS 2
   919                          _swap:
   920                          	DEFS 2
   921                          
   922                          ENDIF
   923                          
   924                          ;--------------------------------------------------------
   925                          ; absolute external ram data
   926                          ;--------------------------------------------------------
   927                          	SECTION IGNORE
   928                          ;--------------------------------------------------------
   929                          ; global & static initialisations
   930                          ;--------------------------------------------------------
   931                          	SECTION code_crt_init
   932                          ;--------------------------------------------------------
   933                          ; Home
   934                          ;--------------------------------------------------------
   935                          	SECTION code_home
   936                          ;--------------------------------------------------------
   937                          ; code
   938                          ;--------------------------------------------------------
   939                          	SECTION code_compiler
   940                          ;	---------------------------------
   941                          ; Function max
   942                          ; ---------------------------------
   943                          _max:
   944  0000  dde5              	push	ix
   945  0002  dd210000          	ld	ix,0
   946  0006  dd39              	add	ix,sp
   947  0008  dd7e05            	ld	a,(ix+5)
   948  000b  dd9604            	sub	a,(ix+4)
   949  000e  3005              	jr	NC,l_max_00102
   950  0010  dd6e04            	ld	l,(ix+4)
   951  0013  1803              	jr	l_max_00104
   952                          l_max_00102:
   953  0015  dd6e05            	ld	l,(ix+5)
   954                          l_max_00104:
   955  0018  dde1              	pop	ix
   956  001a  c9                	ret
   957                          ;	---------------------------------
   958                          ; Function interpolate
   959                          ; ---------------------------------
   960                          _interpolate:
   961  001b  dde5              	push	ix
   962  001d  dd210000          	ld	ix,0
   963  0021  dd39              	add	ix,sp
   964  0023  f5                	push	af
   965  0024  f5                	push	af
   966  0025  dd7e04            	ld	a,(ix+4)
   967  0028  dd9606            	sub	a,(ix+6)
   968  002b  200f              	jr	NZ,l_interpolate_00102
   969  002d  dd4e08            	ld	c,(ix+8)
   970  0030  dd4609            	ld	b,(ix+9)
   971  0033  dd7e05            	ld	a,(ix+5)
   972  0036  02                	ld	(bc), a
   973  0037  2e01              	ld	l,0x01
   974  0039  c3c800            	jp	l_interpolate_00107
   975                          l_interpolate_00102:
   976  003c  dd7e06            	ld	a,(ix+6)
   977  003f  dd9604            	sub	a,(ix+4)
   978  0042  3c                	inc	a
   979  0043  dd77fc            	ld	(ix-4),a
   980  0046  dd6e07            	ld	l,(ix+7)
   981  0049  2600              	ld	h,0x00
   982  004b  dd4e05            	ld	c,(ix+5)
   983  004e  af                	xor	a,a
   984  004f  47                	ld	b,a
   985  0050  ed42              	sbc	hl,bc
   986  0052  5d                	ld	e, l
   987  0053  54                	ld	d, h
   988  0054  29                	add	hl, hl
   989  0055  19                	add	hl, de
   990  0056  29                	add	hl, hl
   991  0057  29                	add	hl, hl
   992  0058  29                	add	hl, hl
   993  0059  19                	add	hl, de
   994  005a  29                	add	hl, hl
   995  005b  29                	add	hl, hl
   996  005c  dd7e06            	ld	a,(ix+6)
   997  005f  dd77fe            	ld	(ix-2),a
   998  0062  dd36ff00          	ld	(ix-1),0x00
   999  0066  dd5e04            	ld	e,(ix+4)
  1000  0069  1600              	ld	d,0x00
  1001  006b  dd7efe            	ld	a,(ix-2)
  1002  006e  93                	sub	a, e
  1003  006f  5f                	ld	e, a
  1004  0070  9f                	sbc	a, a
  1005  0071  92                	sub	a, d
  1006  0072  c5                	push	bc
  1007  0073  57                	ld	d, a
  1008  0074  d5                	push	de
  1009  0075  e5                	push	hl
  1010  0076  cd0000            	call	__divsint_callee
  1011  0079  dd75fd            	ld	(ix-3),l
  1012  007c  dd74fe            	ld	(ix-2),h
  1013  007f  e1                	pop	hl
  1014  0080  4d                	ld	c,l
  1015  0081  44                	ld	b,h
  1016  0082  29                	add	hl, hl
  1017  0083  09                	add	hl, bc
  1018  0084  29                	add	hl, hl
  1019  0085  29                	add	hl, hl
  1020  0086  29                	add	hl, hl
  1021  0087  09                	add	hl, bc
  1022  0088  29                	add	hl, hl
  1023  0089  29                	add	hl, hl
  1024  008a  eb                	ex	de, hl
  1025  008b  dd36ff00          	ld	(ix-1),0x00
  1026                          l_interpolate_00105:
  1027  008f  dd7eff            	ld	a,(ix-1)
  1028  0092  dd96fc            	sub	a,(ix-4)
  1029  0095  302e              	jr	NC,l_interpolate_00103
  1030  0097  dd7e08            	ld	a,(ix+8)
  1031  009a  dd86ff            	add	a,(ix-1)
  1032  009d  4f                	ld	c, a
  1033  009e  dd7e09            	ld	a,(ix+9)
  1034  00a1  ce00              	adc	a,0x00
  1035  00a3  47                	ld	b, a
  1036  00a4  213200            	ld	hl,0x0032
  1037  00a7  19                	add	hl, de
  1038  00a8  c5                	push	bc
  1039  00a9  d5                	push	de
  1040  00aa  ed8a0064          	push	+0x0064
  1041  00ae  e5                	push	hl
  1042  00af  cd0000            	call	__divsint_callee
  1043  00b2  d1                	pop	de
  1044  00b3  c1                	pop	bc
  1045  00b4  7d                	ld	a, l
  1046  00b5  02                	ld	(bc), a
  1047  00b6  7b                	ld	a, e
  1048  00b7  dd86fd            	add	a,(ix-3)
  1049  00ba  5f                	ld	e, a
  1050  00bb  7a                	ld	a, d
  1051  00bc  dd8efe            	adc	a,(ix-2)
  1052  00bf  57                	ld	d, a
  1053  00c0  dd34ff            	inc	(ix-1)
  1054  00c3  18ca              	jr	l_interpolate_00105
  1055                          l_interpolate_00103:
  1056  00c5  dd6efc            	ld	l,(ix-4)
  1057                          l_interpolate_00107:
  1058  00c8  ddf9              	ld	sp, ix
  1059  00ca  dde1              	pop	ix
  1060  00cc  c9                	ret
  1061                          ;	---------------------------------
  1062                          ; Function drawFillTrig
  1063                          ; ---------------------------------
  1064                          _drawFillTrig:
  1065  00cd  dde5              	push	ix
  1066  00cf  dd210000          	ld	ix,0
  1067  00d3  dd39              	add	ix,sp
  1068  00d5  21fafc            	ld	hl, -774
  1069  00d8  39                	add	hl, sp
  1070  00d9  f9                	ld	sp, hl
  1071  00da  dd4e07            	ld	c,(ix+7)
  1072  00dd  dd4605            	ld	b,(ix+5)
  1073  00e0  210a03            	ld	hl,778
  1074  00e3  39                	add	hl, sp
  1075  00e4  79                	ld	a,c
  1076  00e5  eb                	ex	de,hl
  1077  00e6  90                	sub	a, b
  1078  00e7  3023              	jr	NC,l_drawFillTrig_00102
  1079  00e9  210000            	ld	hl,0
  1080  00ec  39                	add	hl, sp
  1081  00ed  e5                	push	hl
  1082  00ee  d5                	push	de
  1083  00ef  eb                	ex	de, hl
  1084  00f0  eda0              	ldi
  1085  00f2  7e                	ld	a, (hl)
  1086  00f3  12                	ld	(de), a
  1087  00f4  d1                	pop	de
  1088  00f5  d5                	push	de
  1089  00f6  211003            	ld	hl,784
  1090  00f9  39                	add	hl, sp
  1091  00fa  eda0              	ldi
  1092  00fc  7e                	ld	a, (hl)
  1093  00fd  12                	ld	(de), a
  1094  00fe  d1                	pop	de
  1095  00ff  e1                	pop	hl
  1096  0100  d5                	push	de
  1097  0101  eb                	ex	de, hl
  1098  0102  210e03            	ld	hl,782
  1099  0105  39                	add	hl, sp
  1100  0106  eb                	ex	de, hl
  1101  0107  eda0              	ldi
  1102  0109  7e                	ld	a, (hl)
  1103  010a  12                	ld	(de), a
  1104  010b  d1                	pop	de
  1105                          l_drawFillTrig_00102:
  1106  010c  dd6e05            	ld	l,(ix+5)
  1107  010f  dd7e09            	ld	a,(ix+9)
  1108  0112  e5                	push	hl
  1109  0113  211003            	ld	hl,784
  1110  0116  39                	add	hl, sp
  1111  0117  4d                	ld	c, l
  1112  0118  44                	ld	b, h
  1113  0119  e1                	pop	hl
  1114  011a  95                	sub	a, l
  1115  011b  301c              	jr	NC,l_drawFillTrig_00104
  1116  011d  210000            	ld	hl,0
  1117  0120  39                	add	hl, sp
  1118  0121  e5                	push	hl
  1119  0122  d5                	push	de
  1120  0123  eb                	ex	de, hl
  1121  0124  eda0              	ldi
  1122  0126  7e                	ld	a, (hl)
  1123  0127  12                	ld	(de), a
  1124  0128  03                	inc	bc
  1125  0129  d1                	pop	de
  1126  012a  69                	ld	l, c
  1127  012b  60                	ld	h, b
  1128  012c  eda0              	ldi
  1129  012e  7e                	ld	a, (hl)
  1130  012f  12                	ld	(de), a
  1131  0130  03                	inc	bc
  1132  0131  e1                	pop	hl
  1133  0132  59                	ld	e, c
  1134  0133  50                	ld	d, b
  1135  0134  eda0              	ldi
  1136  0136  7e                	ld	a, (hl)
  1137  0137  12                	ld	(de), a
  1138  0138  03                	inc	bc
  1139                          l_drawFillTrig_00104:
  1140  0139  dd5e07            	ld	e,(ix+7)
  1141  013c  dd7e09            	ld	a,(ix+9)
  1142  013f  93                	sub	a, e
  1143  0140  3022              	jr	NC,l_drawFillTrig_00106
  1144  0142  210000            	ld	hl,0
  1145  0145  39                	add	hl, sp
  1146  0146  e5                	push	hl
  1147  0147  eb                	ex	de, hl
  1148  0148  210e03            	ld	hl,782
  1149  014b  39                	add	hl, sp
  1150  014c  eda0              	ldi
  1151  014e  7e                	ld	a, (hl)
  1152  014f  12                	ld	(de), a
  1153  0150  03                	inc	bc
  1154  0151  210e03            	ld	hl,782
  1155  0154  39                	add	hl, sp
  1156  0155  59                	ld	e,c
  1157  0156  50                	ld	d,b
  1158  0157  eb                	ex	de,hl
  1159  0158  eda0              	ldi
  1160  015a  7e                	ld	a, (hl)
  1161  015b  12                	ld	(de), a
  1162  015c  03                	inc	bc
  1163  015d  e1                	pop	hl
  1164  015e  59                	ld	e, c
  1165  015f  50                	ld	d, b
  1166  0160  eda0              	ldi
  1167  0162  7e                	ld	a, (hl)
  1168  0163  12                	ld	(de), a
  1169                          l_drawFillTrig_00106:
  1170  0164  dd5606            	ld	d,(ix+6)
  1171  0167  dd4607            	ld	b,(ix+7)
  1172  016a  dd4e04            	ld	c,(ix+4)
  1173  016d  dd7e05            	ld	a,(ix+5)
  1174  0170  210200            	ld	hl,2
  1175  0173  39                	add	hl, sp
  1176  0174  e5                	push	hl
  1177  0175  58                	ld	e,b
  1178  0176  d5                	push	de
  1179  0177  61                	ld	h, c
  1180  0178  6f                	ld	l,a
  1181  0179  e5                	push	hl
  1182  017a  cd1b00            	call	_interpolate
  1183  017d  f1                	pop	af
  1184  017e  f1                	pop	af
  1185  017f  f1                	pop	af
  1186  0180  dd75f8            	ld	(ix-8),l
  1187  0183  dd5608            	ld	d,(ix+8)
  1188  0186  dd4609            	ld	b,(ix+9)
  1189  0189  dd4e06            	ld	c,(ix+6)
  1190  018c  dd7e07            	ld	a,(ix+7)
  1191  018f  21c100            	ld	hl,193
  1192  0192  39                	add	hl, sp
  1193  0193  e5                	push	hl
  1194  0194  58                	ld	e,b
  1195  0195  d5                	push	de
  1196  0196  61                	ld	h, c
  1197  0197  6f                	ld	l,a
  1198  0198  e5                	push	hl
  1199  0199  cd1b00            	call	_interpolate
  1200  019c  f1                	pop	af
  1201  019d  f1                	pop	af
  1202  019e  f1                	pop	af
  1203  019f  dd75f9            	ld	(ix-7),l
  1204  01a2  dd5608            	ld	d,(ix+8)
  1205  01a5  dd4609            	ld	b,(ix+9)
  1206  01a8  dd4e04            	ld	c,(ix+4)
  1207  01ab  dd7e05            	ld	a,(ix+5)
  1208  01ae  218001            	ld	hl,384
  1209  01b1  39                	add	hl, sp
  1210  01b2  e5                	push	hl
  1211  01b3  58                	ld	e,b
  1212  01b4  d5                	push	de
  1213  01b5  61                	ld	h, c
  1214  01b6  6f                	ld	l,a
  1215  01b7  e5                	push	hl
  1216  01b8  cd1b00            	call	_interpolate
  1217  01bb  f1                	pop	af
  1218  01bc  f1                	pop	af
  1219  01bd  f1                	pop	af
  1220  01be  dd75fa            	ld	(ix-6),l
  1221  01c1  dd36ff00          	ld	(ix-1),0x00
  1222                          l_drawFillTrig_00115:
  1223  01c5  dd5ef8            	ld	e,(ix-8)
  1224  01c8  1600              	ld	d,0x00
  1225  01ca  1b                	dec	de
  1226  01cb  dd7eff            	ld	a,(ix-1)
  1227  01ce  0600              	ld	b,0x00
  1228  01d0  93                	sub	a, e
  1229  01d1  78                	ld	a, b
  1230  01d2  9a                	sbc	a, d
  1231  01d3  e2d801            	jp	PO, l_drawFillTrig_00219
  1232  01d6  ee80              	xor	a,0x80
  1233                          l_drawFillTrig_00219:
  1234  01d8  f20802            	jp	P, l_drawFillTrig_00107
  1235  01db  dd5eff            	ld	e,(ix-1)
  1236  01de  1600              	ld	d,0x00
  1237  01e0  213f02            	ld	hl,575
  1238  01e3  39                	add	hl, sp
  1239  01e4  19                	add	hl, de
  1240  01e5  dd75fb            	ld	(ix-5),l
  1241  01e8  dd74fc            	ld	(ix-4),h
  1242  01eb  dd5eff            	ld	e,(ix-1)
  1243  01ee  1600              	ld	d,0x00
  1244  01f0  210200            	ld	hl,2
  1245  01f3  39                	add	hl, sp
  1246  01f4  19                	add	hl, de
  1247  01f5  dd75fd            	ld	(ix-3),l
  1248  01f8  dd74fe            	ld	(ix-2),h
  1249  01fb  7e                	ld	a, (hl)
  1250  01fc  dd6efb            	ld	l,(ix-5)
  1251  01ff  dd66fc            	ld	h,(ix-4)
  1252  0202  77                	ld	(hl), a
  1253  0203  dd34ff            	inc	(ix-1)
  1254  0206  18bd              	jr	l_drawFillTrig_00115
  1255                          l_drawFillTrig_00107:
  1256  0208  dd36ff00          	ld	(ix-1),0x00
  1257                          l_drawFillTrig_00118:
  1258  020c  dd7eff            	ld	a,(ix-1)
  1259  020f  dd96f9            	sub	a,(ix-7)
  1260  0212  3022              	jr	NC,l_drawFillTrig_00108
  1261  0214  dd6eff            	ld	l,(ix-1)
  1262  0217  2600              	ld	h,0x00
  1263  0219  19                	add	hl, de
  1264  021a  4d                	ld	c, l
  1265  021b  44                	ld	b, h
  1266  021c  213f02            	ld	hl,575
  1267  021f  39                	add	hl, sp
  1268  0220  09                	add	hl, bc
  1269  0221  4d                	ld	c, l
  1270  0222  44                	ld	b, h
  1271  0223  d5                	push	de
  1272  0224  dd5eff            	ld	e,(ix-1)
  1273  0227  1600              	ld	d,0x00
  1274  0229  21c300            	ld	hl,195
  1275  022c  39                	add	hl, sp
  1276  022d  19                	add	hl, de
  1277  022e  d1                	pop	de
  1278  022f  7e                	ld	a, (hl)
  1279  0230  02                	ld	(bc), a
  1280  0231  dd34ff            	inc	(ix-1)
  1281  0234  18d6              	jr	l_drawFillTrig_00118
  1282                          l_drawFillTrig_00108:
  1283  0236  dd4efa            	ld	c,(ix-6)
  1284  0239  0600              	ld	b,0x00
  1285  023b  cb28              	sra	b
  1286  023d  cb19              	rr	c
  1287  023f  59                	ld	e, c
  1288  0240  1600              	ld	d,0x00
  1289  0242  218001            	ld	hl,384
  1290  0245  39                	add	hl, sp
  1291  0246  19                	add	hl, de
  1292  0247  46                	ld	b, (hl)
  1293  0248  59                	ld	e, c
  1294  0249  1600              	ld	d,0x00
  1295  024b  213f02            	ld	hl,575
  1296  024e  39                	add	hl, sp
  1297  024f  19                	add	hl, de
  1298  0250  4e                	ld	c, (hl)
  1299  0251  213f02            	ld	hl,575
  1300  0254  39                	add	hl, sp
  1301  0255  78                	ld	a,b
  1302  0256  eb                	ex	de,hl
  1303  0257  91                	sub	a, c
  1304  0258  301c              	jr	NC,l_drawFillTrig_00110
  1305  025a  e5                	push	hl
  1306  025b  f5                	push	af
  1307  025c  218401            	ld	hl,388
  1308  025f  39                	add	hl, sp
  1309  0260  f1                	pop	af
  1310  0261  dd75fc            	ld	(ix-4),l
  1311  0264  f5                	push	af
  1312  0265  218401            	ld	hl,388
  1313  0268  39                	add	hl, sp
  1314  0269  f1                	pop	af
  1315  026a  dd74fd            	ld	(ix-3),h
  1316  026d  e1                	pop	hl
  1317  026e  dd73fe            	ld	(ix-2),e
  1318  0271  dd72ff            	ld	(ix-1),d
  1319  0274  181a              	jr	l_drawFillTrig_00111
  1320                          l_drawFillTrig_00110:
  1321  0276  dd73fc            	ld	(ix-4),e
  1322  0279  dd72fd            	ld	(ix-3),d
  1323  027c  e5                	push	hl
  1324  027d  f5                	push	af
  1325  027e  218401            	ld	hl,388
  1326  0281  39                	add	hl, sp
  1327  0282  f1                	pop	af
  1328  0283  dd75fe            	ld	(ix-2),l
  1329  0286  f5                	push	af
  1330  0287  218401            	ld	hl,388
  1331  028a  39                	add	hl, sp
  1332  028b  f1                	pop	af
  1333  028c  dd74ff            	ld	(ix-1),h
  1334  028f  e1                	pop	hl
  1335                          l_drawFillTrig_00111:
  1336  0290  dd4605            	ld	b,(ix+5)
  1337                          l_drawFillTrig_00124:
  1338  0293  dd7e09            	ld	a,(ix+9)
  1339  0296  90                	sub	a, b
  1340  0297  3835              	jr	C,l_drawFillTrig_00126
  1341  0299  dd4e05            	ld	c,(ix+5)
  1342  029c  78                	ld	a, b
  1343  029d  91                	sub	a, c
  1344  029e  5f                	ld	e, a
  1345  029f  dd6efc            	ld	l,(ix-4)
  1346  02a2  dd66fd            	ld	h,(ix-3)
  1347  02a5  1600              	ld	d,0x00
  1348  02a7  19                	add	hl, de
  1349  02a8  56                	ld	d, (hl)
  1350  02a9  dd7efe            	ld	a,(ix-2)
  1351  02ac  83                	add	a, e
  1352  02ad  4f                	ld	c, a
  1353  02ae  dd7eff            	ld	a,(ix-1)
  1354  02b1  ce00              	adc	a,0x00
  1355  02b3  5f                	ld	e, a
  1356                          l_drawFillTrig_00121:
  1357  02b4  69                	ld	l, c
  1358  02b5  63                	ld	h, e
  1359  02b6  7e                	ld	a, (hl)
  1360  02b7  92                	sub	a, d
  1361  02b8  3811              	jr	C,l_drawFillTrig_00125
  1362  02ba  c5                	push	bc
  1363  02bb  d5                	push	de
  1364  02bc  dd7e0a            	ld	a,(ix+10)
  1365  02bf  f5                	push	af
  1366  02c0  33                	inc	sp
  1367  02c1  4a                	ld	c, d
  1368  02c2  c5                	push	bc
  1369  02c3  cd0000            	call	_PlotPixel8K
  1370  02c6  d1                	pop	de
  1371  02c7  c1                	pop	bc
  1372  02c8  14                	inc	d
  1373  02c9  18e9              	jr	l_drawFillTrig_00121
  1374                          l_drawFillTrig_00125:
  1375  02cb  04                	inc	b
  1376  02cc  18c5              	jr	l_drawFillTrig_00124
  1377                          l_drawFillTrig_00126:
  1378  02ce  ddf9              	ld	sp, ix
  1379  02d0  dde1              	pop	ix
  1380  02d2  c9                	ret
  1381                          ;	---------------------------------
  1382                          ; Function main
  1383                          ; ---------------------------------
  1384                          _main:
  1385  02d3  cd0000            	call	_setCPU
  1386  02d6  cd0000            	call	_initL2
  1387  02d9  2e01              	ld	l,0x01
  1388  02db  cd0000            	call	_zx_border_fastcall
  1389  02de  3a0200            	ld	a, (_colour)
  1390  02e1  6f                	ld	l, a
  1391  02e2  cd0000            	call	_clearL2
  1392  02e5  2e02              	ld	l,0x02
  1393  02e7  cd0000            	call	_zx_border_fastcall
  1394  02ea  af                	xor	a, a
  1395  02eb  320200            	ld	(_colour),a
  1396  02ee  210000            	ld	hl,_x
  1397  02f1  360a              	ld	(hl),0x0a
  1398  02f3  210100            	ld	hl,_y
  1399  02f6  3628              	ld	(hl),0x28
  1400  02f8  2e06              	ld	l,0x06
  1401  02fa  cd0000            	call	_zx_border_fastcall
  1402  02fd  2e04              	ld	l,0x04
  1403  02ff  cd0000            	call	_zx_border_fastcall
  1404  0302  af                	xor	a, a
  1405  0303  57                	ld	d,a
  1406  0304  1ebe              	ld	e,0xbe
  1407  0306  d5                	push	de
  1408  0307  1164e6            	ld	de,0xe664
  1409  030a  d5                	push	de
  1410  030b  3e0f              	ld	a,0x0f
  1411  030d  f5                	push	af
  1412  030e  33                	inc	sp
  1413  030f  cd0000            	call	_drawL2
  1414  0312  2e02              	ld	l,0x02
  1415  0314  cd0000            	call	_zx_border_fastcall
  1416  0317  115af0            	ld	de,0xf05a
  1417  031a  d5                	push	de
  1418  031b  110a1e            	ld	de,0x1e0a
  1419  031e  d5                	push	de
  1420  031f  3ec8              	ld	a,0xc8
  1421  0321  f5                	push	af
  1422  0322  33                	inc	sp
  1423  0323  cd0000            	call	_drawL2
  1424  0326  2e06              	ld	l,0x06
  1425  0328  cd0000            	call	_zx_border_fastcall
  1426  032b  11aaff            	ld	de,0xffaa
  1427  032e  d5                	push	de
  1428  032f  111428            	ld	de,0x2814
  1429  0332  d5                	push	de
  1430  0333  3e1e              	ld	a,0x1e
  1431  0335  f5                	push	af
  1432  0336  33                	inc	sp
  1433  0337  cd0000            	call	_drawL2
  1434  033a  2e04              	ld	l,0x04
  1435  033c  cd0000            	call	_zx_border_fastcall
  1436  033f  1182fa            	ld	de,0xfa82
  1437  0342  d5                	push	de
  1438  0343  111ec8            	ld	de,0xc81e
  1439  0346  d5                	push	de
  1440  0347  3eff              	ld	a,0xff
  1441  0349  f5                	push	af
  1442  034a  33                	inc	sp
  1443  034b  cd0000            	call	_drawL2
  1444  034e  2e01              	ld	l,0x01
  1445  0350  cd0000            	call	_zx_border_fastcall
  1446  0353  1128c8            	ld	de,0xc828
  1447  0356  d5                	push	de
  1448  0357  1128fa            	ld	de,0xfa28
  1449  035a  d5                	push	de
  1450  035b  3e32              	ld	a,0x32
  1451  035d  f5                	push	af
  1452  035e  33                	inc	sp
  1453  035f  cd0000            	call	_drawL2
  1454  0362  2e03              	ld	l,0x03
  1455  0364  cd0000            	call	_zx_border_fastcall
  1456  0367  1114d2            	ld	de,0xd214
  1457  036a  d5                	push	de
  1458  036b  11aa80            	ld	de,0x80aa
  1459  036e  d5                	push	de
  1460  036f  3e80              	ld	a,0x80
  1461  0371  f5                	push	af
  1462  0372  33                	inc	sp
  1463  0373  cd0000            	call	_drawL2
  1464  0376  2e05              	ld	l,0x05
  1465  0378  cd0000            	call	_zx_border_fastcall
  1466                          l_main_00102:
  1467  037b  18fe              	jr	l_main_00102
  1468                          	SECTION data_compiler
  1469                          _x:
  1470  0000  00                	DEFB +0x00
  1471                          _y:
  1472  0001  00                	DEFB +0x00
  1473                          _colour:
  1474  0002  0f                	DEFB +0x0f
  1475                          _x1:
  1476  0003  14                	DEFB +0x14
  1477                          _y1:
  1478  0004  0a                	DEFB +0x0a
  1479                          _x2:
  1480  0005  5a                	DEFB +0x5a
  1481                          _y2:
  1482  0006  50                	DEFB +0x50
  1483                          _p0:
  1484  0007  64                	DEFB +0x64
  1485  0008  0a                	DEFB +0x0a
  1486                          _p1:
  1487  0009  96                	DEFB +0x96
  1488  000a  78                	DEFB +0x78
  1489                          _p2:
  1490  000b  aa                	DEFB +0xaa
  1491  000c  3c                	DEFB +0x3c
  1492                          _swap:
  1493  000d  00                	DEFB +0x00
  1494  000e  00                	DEFB +0x00
  1495                          	SECTION IGNORE
  1496                          
